target datalayout = "e-m:e-p270:32:32-p271:32:32-p272:64:64-i64:64-i128:128-f80:128-n8:16:32:64-S128"
target triple = "x86_64-pc-linux-gnu"

%"class.std::__shared_count" = type { ptr }
%"struct.Assimp::Blender::ElemBase" = type { ptr, ptr }
%"class.Assimp::Blender::FileDatabase" = type { i8, i8, %"class.Assimp::Blender::DNA", %"class.std::shared_ptr.23", %"class.Assimp::Blender::vector.26", %"class.Assimp::Blender::Statistics", [8 x i8], %"class.Assimp::Blender::ObjectCache", i64 }
%"class.Assimp::Blender::DNA" = type { %"class.std::map.12", %"class.Assimp::Blender::vector.17", %"class.std::map" }
%"class.std::map.12" = type { %"class.std::_Rb_tree.13" }
%"class.std::_Rb_tree.13" = type { %"struct.std::_Rb_tree<std::__cxx11::basic_string<char>, std::pair<const std::__cxx11::basic_string<char>, std::pair<std::shared_ptr<Assimp::Blender::ElemBase> (Assimp::Blender::Structure::*)() const, void (Assimp::Blender::Structure::*)(std::shared_ptr<Assimp::Blender::ElemBase>, const Assimp::Blender::FileDatabase &) const>>, std::_Select1st<std::pair<const std::__cxx11::basic_string<char>, std::pair<std::shared_ptr<Assimp::Blender::ElemBase> (Assimp::Blender::Structure::*)() const, void (Assimp::Blender::Structure::*)(std::shared_ptr<Assimp::Blender::ElemBase>, const Assimp::Blender::FileDatabase &) const>>>, std::less<std::__cxx11::basic_string<char>>>::_Rb_tree_impl" }
%"struct.std::_Rb_tree<std::__cxx11::basic_string<char>, std::pair<const std::__cxx11::basic_string<char>, std::pair<std::shared_ptr<Assimp::Blender::ElemBase> (Assimp::Blender::Structure::*)() const, void (Assimp::Blender::Structure::*)(std::shared_ptr<Assimp::Blender::ElemBase>, const Assimp::Blender::FileDatabase &) const>>, std::_Select1st<std::pair<const std::__cxx11::basic_string<char>, std::pair<std::shared_ptr<Assimp::Blender::ElemBase> (Assimp::Blender::Structure::*)() const, void (Assimp::Blender::Structure::*)(std::shared_ptr<Assimp::Blender::ElemBase>, const Assimp::Blender::FileDatabase &) const>>>, std::less<std::__cxx11::basic_string<char>>>::_Rb_tree_impl" = type { [8 x i8], %"struct.std::_Rb_tree_header" }
%"struct.std::_Rb_tree_header" = type { %"struct.std::_Rb_tree_node_base", i64 }
%"struct.std::_Rb_tree_node_base" = type { i32, ptr, ptr, ptr }
%"class.Assimp::Blender::vector.17" = type { %"class.std::vector.18" }
%"class.std::vector.18" = type { %"struct.std::_Vector_base.19" }
%"struct.std::_Vector_base.19" = type { %"struct.std::_Vector_base<Assimp::Blender::Structure, std::allocator<Assimp::Blender::Structure>>::_Vector_impl" }
%"struct.std::_Vector_base<Assimp::Blender::Structure, std::allocator<Assimp::Blender::Structure>>::_Vector_impl" = type { %"struct.std::_Vector_base<Assimp::Blender::Structure, std::allocator<Assimp::Blender::Structure>>::_Vector_impl_data" }
%"struct.std::_Vector_base<Assimp::Blender::Structure, std::allocator<Assimp::Blender::Structure>>::_Vector_impl_data" = type { ptr, ptr, ptr }
%"class.std::map" = type { %"class.std::_Rb_tree" }
%"class.std::_Rb_tree" = type { %"struct.std::_Rb_tree<std::__cxx11::basic_string<char>, std::pair<const std::__cxx11::basic_string<char>, unsigned long>, std::_Select1st<std::pair<const std::__cxx11::basic_string<char>, unsigned long>>, std::less<std::__cxx11::basic_string<char>>>::_Rb_tree_impl" }
%"struct.std::_Rb_tree<std::__cxx11::basic_string<char>, std::pair<const std::__cxx11::basic_string<char>, unsigned long>, std::_Select1st<std::pair<const std::__cxx11::basic_string<char>, unsigned long>>, std::less<std::__cxx11::basic_string<char>>>::_Rb_tree_impl" = type { [8 x i8], %"struct.std::_Rb_tree_header" }
%"class.std::shared_ptr.23" = type { %"class.std::__shared_ptr.24" }
%"class.std::__shared_ptr.24" = type { ptr, %"class.std::__shared_count" }
%"class.Assimp::Blender::vector.26" = type { %"class.std::vector.27" }
%"class.std::vector.27" = type { %"struct.std::_Vector_base.28" }
%"struct.std::_Vector_base.28" = type { %"struct.std::_Vector_base<Assimp::Blender::FileBlockHead, std::allocator<Assimp::Blender::FileBlockHead>>::_Vector_impl" }
%"struct.std::_Vector_base<Assimp::Blender::FileBlockHead, std::allocator<Assimp::Blender::FileBlockHead>>::_Vector_impl" = type { %"struct.std::_Vector_base<Assimp::Blender::FileBlockHead, std::allocator<Assimp::Blender::FileBlockHead>>::_Vector_impl_data" }
%"struct.std::_Vector_base<Assimp::Blender::FileBlockHead, std::allocator<Assimp::Blender::FileBlockHead>>::_Vector_impl_data" = type { ptr, ptr, ptr }
%"class.Assimp::Blender::Statistics" = type { i32, i32, i32, i32 }
%"class.Assimp::Blender::ObjectCache" = type { %"class.Assimp::Blender::vector.32", ptr }
%"class.Assimp::Blender::vector.32" = type { %"class.std::vector.33" }
%"class.std::vector.33" = type { %"struct.std::_Vector_base.34" }
%"struct.std::_Vector_base.34" = type { %"struct.std::_Vector_base<std::map<Assimp::Blender::Pointer, std::shared_ptr<Assimp::Blender::ElemBase>>, std::allocator<std::map<Assimp::Blender::Pointer, std::shared_ptr<Assimp::Blender::ElemBase>>>>::_Vector_impl" }
%"struct.std::_Vector_base<std::map<Assimp::Blender::Pointer, std::shared_ptr<Assimp::Blender::ElemBase>>, std::allocator<std::map<Assimp::Blender::Pointer, std::shared_ptr<Assimp::Blender::ElemBase>>>>::_Vector_impl" = type { %"struct.std::_Vector_base<std::map<Assimp::Blender::Pointer, std::shared_ptr<Assimp::Blender::ElemBase>>, std::allocator<std::map<Assimp::Blender::Pointer, std::shared_ptr<Assimp::Blender::ElemBase>>>>::_Vector_impl_data" }
%"struct.std::_Vector_base<std::map<Assimp::Blender::Pointer, std::shared_ptr<Assimp::Blender::ElemBase>>, std::allocator<std::map<Assimp::Blender::Pointer, std::shared_ptr<Assimp::Blender::ElemBase>>>>::_Vector_impl_data" = type { ptr, ptr, ptr }
%"class.Assimp::Blender::Structure" = type { %"class.std::__cxx11::basic_string", %"class.Assimp::Blender::vector", %"class.std::map", i64, i64 }
%"class.std::__cxx11::basic_string" = type { %"struct.std::__cxx11::basic_string<char>::_Alloc_hider", i64, %union.anon }
%"struct.std::__cxx11::basic_string<char>::_Alloc_hider" = type { ptr }
%union.anon = type { i64, [8 x i8] }
%"class.Assimp::Blender::vector" = type { %"class.std::vector" }
%"class.std::vector" = type { %"struct.std::_Vector_base" }
%"struct.std::_Vector_base" = type { %"struct.std::_Vector_base<Assimp::Blender::Field, std::allocator<Assimp::Blender::Field>>::_Vector_impl" }
%"struct.std::_Vector_base<Assimp::Blender::Field, std::allocator<Assimp::Blender::Field>>::_Vector_impl" = type { %"struct.std::_Vector_base<Assimp::Blender::Field, std::allocator<Assimp::Blender::Field>>::_Vector_impl_data" }
%"struct.std::_Vector_base<Assimp::Blender::Field, std::allocator<Assimp::Blender::Field>>::_Vector_impl_data" = type { ptr, ptr, ptr }
%"class.Assimp::StreamReader" = type <{ %"class.std::shared_ptr.38", ptr, ptr, ptr, ptr, i8, [7 x i8] }>
%"class.std::shared_ptr.38" = type { %"class.std::__shared_ptr.39" }
%"class.std::__shared_ptr.39" = type { ptr, %"class.std::__shared_count" }
%"struct.Assimp::Blender::MCol" = type <{ %"struct.Assimp::Blender::ElemBase", i8, i8, i8, i8, [4 x i8] }>

@.str.37 = private unnamed_addr constant [2 x i8] c"r\00", align 1
@.str.38 = private unnamed_addr constant [2 x i8] c"g\00", align 1
@.str.39 = private unnamed_addr constant [2 x i8] c"b\00", align 1
@.str.215 = private unnamed_addr constant [2 x i8] c"a\00", align 1
@.str.307 = private unnamed_addr constant [38 x i8] c"End of file or read limit was reached\00", align 1
@_ZTI17DeadlyImportError = linkonce_odr constant { ptr, ptr, ptr } { ptr getelementptr inbounds (ptr, ptr @_ZTVN10__cxxabiv120__si_class_type_infoE, i64 2), ptr @_ZTS17DeadlyImportError, ptr @_ZTI15DeadlyErrorBase }, comdat, align 8

; Function Attrs: mustprogress nounwind uwtable
define linkonce_odr hidden noundef ptr @_ZNKSt12__shared_ptrIN6Assimp12StreamReaderILb1ELb1EEELN9__gnu_cxx12_Lock_policyE2EE3getEv(ptr noundef nonnull align 8 dereferenceable(16) %0) #3 comdat align 2 {
  %2 = alloca ptr, align 8
  store ptr %0, ptr %2, align 8
  %3 = load ptr, ptr %2, align 8
  %4 = getelementptr inbounds nuw %"class.std::__shared_ptr.24", ptr %3, i32 0, i32 0
  %5 = load ptr, ptr %4, align 8
  ret ptr %5
}

; Function Attrs: mustprogress nounwind uwtable
define linkonce_odr hidden noundef ptr @_ZNKSt19__shared_ptr_accessIN6Assimp12StreamReaderILb1ELb1EEELN9__gnu_cxx12_Lock_policyE2ELb0ELb0EE6_M_getEv(ptr noundef nonnull align 1 dereferenceable(1) %0) #3 comdat align 2 {
  %2 = alloca ptr, align 8
  store ptr %0, ptr %2, align 8
  %3 = load ptr, ptr %2, align 8
  %4 = call noundef ptr @_ZNKSt12__shared_ptrIN6Assimp12StreamReaderILb1ELb1EEELN9__gnu_cxx12_Lock_policyE2EE3getEv(ptr noundef nonnull align 8 dereferenceable(16) %3) #21
  ret ptr %4
}

; Function Attrs: mustprogress uwtable
define linkonce_odr hidden void @_ZN6Assimp12StreamReaderILb1ELb1EE6IncPtrEl(ptr noundef nonnull align 8 dereferenceable(49) %0, i64 noundef %1) #1 comdat align 2 personality ptr @__gxx_personality_v0 {
  %3 = alloca ptr, align 8
  %4 = alloca i64, align 8
  %5 = alloca ptr, align 8
  %6 = alloca i32, align 4
  store ptr %0, ptr %3, align 8
  store i64 %1, ptr %4, align 8
  %7 = load ptr, ptr %3, align 8
  %8 = load i64, ptr %4, align 8
  %9 = getelementptr inbounds nuw %"class.Assimp::StreamReader", ptr %7, i32 0, i32 2
  %10 = load ptr, ptr %9, align 8
  %11 = getelementptr inbounds i8, ptr %10, i64 %8
  store ptr %11, ptr %9, align 8
  %12 = getelementptr inbounds nuw %"class.Assimp::StreamReader", ptr %7, i32 0, i32 2
  %13 = load ptr, ptr %12, align 8
  %14 = getelementptr inbounds nuw %"class.Assimp::StreamReader", ptr %7, i32 0, i32 4
  %15 = load ptr, ptr %14, align 8
  %16 = icmp ugt ptr %13, %15
  br i1 %16, label %17, label %24

17:                                               ; preds = %2
  %18 = call ptr @__cxa_allocate_exception(i64 16) #21
  invoke void @_ZN17DeadlyImportErrorC2EPKc(ptr noundef nonnull align 8 dereferenceable(16) %18, ptr noundef @.str.307)
          to label %19 unwind label %20

19:                                               ; preds = %17
  call void @__cxa_throw(ptr %18, ptr @_ZTI17DeadlyImportError, ptr @_ZNSt13runtime_errorD2Ev) #23
  unreachable

20:                                               ; preds = %17
  %21 = landingpad { ptr, i32 }
          cleanup
  %22 = extractvalue { ptr, i32 } %21, 0
  store ptr %22, ptr %5, align 8
  %23 = extractvalue { ptr, i32 } %21, 1
  store i32 %23, ptr %6, align 4
  call void @__cxa_free_exception(ptr %18) #21
  br label %25

24:                                               ; preds = %2
  ret void

25:                                               ; preds = %20
  %26 = load ptr, ptr %5, align 8
  %27 = load i32, ptr %6, align 4
  %28 = insertvalue { ptr, i32 } poison, ptr %26, 0
  %29 = insertvalue { ptr, i32 } %28, i32 %27, 1
  resume { ptr, i32 } %29
}

; Function Attrs: mustprogress nounwind uwtable
define linkonce_odr hidden noundef ptr @_ZNKSt19__shared_ptr_accessIN6Assimp12StreamReaderILb1ELb1EEELN9__gnu_cxx12_Lock_policyE2ELb0ELb0EEptEv(ptr noundef nonnull align 1 dereferenceable(1) %0) #3 comdat align 2 {
  %2 = alloca ptr, align 8
  store ptr %0, ptr %2, align 8
  %3 = load ptr, ptr %2, align 8
  %4 = call noundef ptr @_ZNKSt19__shared_ptr_accessIN6Assimp12StreamReaderILb1ELb1EEELN9__gnu_cxx12_Lock_policyE2ELb0ELb0EE6_M_getEv(ptr noundef nonnull align 1 dereferenceable(1) %3) #21
  ret ptr %4
}

; Function Attrs: mustprogress uwtable
define hidden void @_ZNK6Assimp7Blender9Structure7ConvertINS0_4MColEEEvRT_RKNS0_12FileDatabaseE(ptr noundef nonnull align 8 dereferenceable(120) %0, ptr noundef nonnull align 8 dereferenceable(20) %1, ptr noundef nonnull align 8 dereferenceable(232) %2) #1 align 2 {
  %4 = alloca ptr, align 8
  %5 = alloca ptr, align 8
  %6 = alloca ptr, align 8
  store ptr %0, ptr %4, align 8
  store ptr %1, ptr %5, align 8
  store ptr %2, ptr %6, align 8
  %7 = load ptr, ptr %4, align 8
  %8 = load ptr, ptr %5, align 8
  %9 = getelementptr inbounds nuw %"struct.Assimp::Blender::MCol", ptr %8, i32 0, i32 1
  %10 = load ptr, ptr %6, align 8
  call void @_ZNK6Assimp7Blender9Structure9ReadFieldILi2EcEEvRT0_PKcRKNS0_12FileDatabaseE(ptr noundef nonnull align 8 dereferenceable(120) %7, ptr noundef nonnull align 1 dereferenceable(1) %9, ptr noundef @.str.37, ptr noundef nonnull align 8 dereferenceable(232) %10)
  %11 = load ptr, ptr %5, align 8
  %12 = getelementptr inbounds nuw %"struct.Assimp::Blender::MCol", ptr %11, i32 0, i32 2
  %13 = load ptr, ptr %6, align 8
  call void @_ZNK6Assimp7Blender9Structure9ReadFieldILi2EcEEvRT0_PKcRKNS0_12FileDatabaseE(ptr noundef nonnull align 8 dereferenceable(120) %7, ptr noundef nonnull align 1 dereferenceable(1) %12, ptr noundef @.str.38, ptr noundef nonnull align 8 dereferenceable(232) %13)
  %14 = load ptr, ptr %5, align 8
  %15 = getelementptr inbounds nuw %"struct.Assimp::Blender::MCol", ptr %14, i32 0, i32 3
  %16 = load ptr, ptr %6, align 8
  call void @_ZNK6Assimp7Blender9Structure9ReadFieldILi2EcEEvRT0_PKcRKNS0_12FileDatabaseE(ptr noundef nonnull align 8 dereferenceable(120) %7, ptr noundef nonnull align 1 dereferenceable(1) %15, ptr noundef @.str.39, ptr noundef nonnull align 8 dereferenceable(232) %16)
  %17 = load ptr, ptr %5, align 8
  %18 = getelementptr inbounds nuw %"struct.Assimp::Blender::MCol", ptr %17, i32 0, i32 4
  %19 = load ptr, ptr %6, align 8
  call void @_ZNK6Assimp7Blender9Structure9ReadFieldILi2EcEEvRT0_PKcRKNS0_12FileDatabaseE(ptr noundef nonnull align 8 dereferenceable(120) %7, ptr noundef nonnull align 1 dereferenceable(1) %18, ptr noundef @.str.215, ptr noundef nonnull align 8 dereferenceable(232) %19)
  %20 = load ptr, ptr %6, align 8
  %21 = getelementptr inbounds nuw %"class.Assimp::Blender::FileDatabase", ptr %20, i32 0, i32 3
  %22 = call noundef ptr @_ZNKSt19__shared_ptr_accessIN6Assimp12StreamReaderILb1ELb1EEELN9__gnu_cxx12_Lock_policyE2ELb0ELb0EEptEv(ptr noundef nonnull align 1 dereferenceable(1) %21) #21
  %23 = getelementptr inbounds nuw %"class.Assimp::Blender::Structure", ptr %7, i32 0, i32 3
  %24 = load i64, ptr %23, align 8
  call void @_ZN6Assimp12StreamReaderILb1ELb1EE6IncPtrEl(ptr noundef nonnull align 8 dereferenceable(49) %22, i64 noundef %24)
  ret void
}